target datalayout = "e-m:e-p270:32:32-p271:32:32-p272:64:64-i64:64-i128:128-f80:128-n8:16:32:64-S128"
target triple = "x86_64-pc-linux-gnu"

%struct.cli_bc_type = type { i32, ptr, i32, i32, i32 }
%struct.cli_bc = type { %struct.bytecode_metadata, i32, i32, i32, i32, ptr, ptr, ptr, ptr, i64, i32, ptr, ptr, ptr, ptr, i32, i16, ptr, i32, i32, i32, i32, ptr, i32, i32, ptr }
%struct.bytecode_metadata = type { ptr, ptr, i64, i32, i32, i32, i32, i32 }

@.str.230 = private unnamed_addr constant [2 x i8] c")\00", align 1
@.str.418 = private unnamed_addr constant [7 x i8] c"alloc \00", align 1
@.str.419 = private unnamed_addr constant [4 x i8] c"i%d\00", align 1
@.str.420 = private unnamed_addr constant [13 x i8] c"invalid type\00", align 1
@.str.421 = private unnamed_addr constant [9 x i8] c" func ( \00", align 1
@.str.422 = private unnamed_addr constant [2 x i8] c" \00", align 1
@.str.423 = private unnamed_addr constant [2 x i8] c"*\00", align 1
@.str.424 = private unnamed_addr constant [3 x i8] c"{ \00", align 1
@.str.425 = private unnamed_addr constant [2 x i8] c"}\00", align 1
@.str.426 = private unnamed_addr constant [2 x i8] c"[\00", align 1
@.str.427 = private unnamed_addr constant [6 x i8] c"%d x \00", align 1
@.str.428 = private unnamed_addr constant [2 x i8] c"]\00", align 1
@.str.429 = private unnamed_addr constant [37 x i8] c"unhandled type kind %d, cannot parse\00", align 1

; Function Attrs: nounwind uwtable
define internal void @cli_bytetype_helper(ptr noundef %0, i32 noundef %1) #0 {
  %3 = alloca ptr, align 8
  %4 = alloca i32, align 4
  %5 = alloca i32, align 4
  %6 = alloca i32, align 4
  %7 = alloca ptr, align 8
  store ptr %0, ptr %3, align 8
  store i32 %1, ptr %4, align 4
  %8 = load i32, ptr %4, align 4
  %9 = and i32 %8, 32768
  %10 = icmp ne i32 %9, 0
  br i1 %10, label %11, label %15

11:                                               ; preds = %2
  %12 = call i32 (ptr, ...) @printf(ptr noundef @.str.418)
  %13 = load i32, ptr %4, align 4
  %14 = and i32 %13, 32767
  store i32 %14, ptr %4, align 4
  br label %15

15:                                               ; preds = %11, %2
  %16 = load i32, ptr %4, align 4
  %17 = icmp ult i32 %16, 65
  br i1 %17, label %18, label %21

18:                                               ; preds = %15
  %19 = load i32, ptr %4, align 4
  %20 = call i32 (ptr, ...) @printf(ptr noundef @.str.419, i32 noundef %19)
  br label %120

21:                                               ; preds = %15
  %22 = load i32, ptr %4, align 4
  %23 = sub i32 %22, 65
  store i32 %23, ptr %5, align 4
  %24 = load i32, ptr %5, align 4
  %25 = load ptr, ptr %3, align 8
  %26 = getelementptr inbounds %struct.cli_bc, ptr %25, i32 0, i32 3
  %27 = load i32, ptr %26, align 8
  %28 = icmp uge i32 %24, %27
  br i1 %28, label %29, label %31

29:                                               ; preds = %21
  %30 = call i32 (ptr, ...) @printf(ptr noundef @.str.420)
  br label %120

31:                                               ; preds = %21
  %32 = load ptr, ptr %3, align 8
  %33 = getelementptr inbounds %struct.cli_bc, ptr %32, i32 0, i32 6
  %34 = load ptr, ptr %33, align 8
  %35 = load i32, ptr %5, align 4
  %36 = zext i32 %35 to i64
  %37 = getelementptr inbounds %struct.cli_bc_type, ptr %34, i64 %36
  store ptr %37, ptr %7, align 8
  %38 = load ptr, ptr %7, align 8
  %39 = getelementptr inbounds %struct.cli_bc_type, ptr %38, i32 0, i32 0
  %40 = load i32, ptr %39, align 8
  switch i32 %40, label %115 [
    i32 0, label %41
    i32 1, label %70
    i32 2, label %79
    i32 3, label %79
    i32 4, label %101
  ]

41:                                               ; preds = %31
  %42 = load ptr, ptr %3, align 8
  %43 = load ptr, ptr %7, align 8
  %44 = getelementptr inbounds %struct.cli_bc_type, ptr %43, i32 0, i32 1
  %45 = load ptr, ptr %44, align 8
  %46 = getelementptr inbounds i16, ptr %45, i64 0
  %47 = load i16, ptr %46, align 2
  %48 = zext i16 %47 to i32
  call void @cli_bytetype_helper(ptr noundef %42, i32 noundef %48)
  %49 = call i32 (ptr, ...) @printf(ptr noundef @.str.421)
  store i32 1, ptr %6, align 4
  br label %50

50:                                               ; preds = %65, %41
  %51 = load i32, ptr %6, align 4
  %52 = load ptr, ptr %7, align 8
  %53 = getelementptr inbounds %struct.cli_bc_type, ptr %52, i32 0, i32 2
  %54 = load i32, ptr %53, align 8
  %55 = icmp ult i32 %51, %54
  br i1 %55, label %56, label %68

56:                                               ; preds = %50
  %57 = load ptr, ptr %3, align 8
  %58 = load ptr, ptr %7, align 8
  %59 = getelementptr inbounds %struct.cli_bc_type, ptr %58, i32 0, i32 1
  %60 = load ptr, ptr %59, align 8
  %61 = getelementptr inbounds i16, ptr %60, i64 0
  %62 = load i16, ptr %61, align 2
  %63 = zext i16 %62 to i32
  call void @cli_bytetype_helper(ptr noundef %57, i32 noundef %63)
  %64 = call i32 (ptr, ...) @printf(ptr noundef @.str.422)
  br label %65

65:                                               ; preds = %56
  %66 = load i32, ptr %6, align 4
  %67 = add i32 %66, 1
  store i32 %67, ptr %6, align 4
  br label %50

68:                                               ; preds = %50
  %69 = call i32 (ptr, ...) @printf(ptr noundef @.str.230)
  br label %120

70:                                               ; preds = %31
  %71 = load ptr, ptr %3, align 8
  %72 = load ptr, ptr %7, align 8
  %73 = getelementptr inbounds %struct.cli_bc_type, ptr %72, i32 0, i32 1
  %74 = load ptr, ptr %73, align 8
  %75 = getelementptr inbounds i16, ptr %74, i64 0
  %76 = load i16, ptr %75, align 2
  %77 = zext i16 %76 to i32
  call void @cli_bytetype_helper(ptr noundef %71, i32 noundef %77)
  %78 = call i32 (ptr, ...) @printf(ptr noundef @.str.423)
  br label %120

79:                                               ; preds = %31, %31
  %80 = call i32 (ptr, ...) @printf(ptr noundef @.str.424)
  store i32 0, ptr %6, align 4
  br label %81

81:                                               ; preds = %96, %79
  %82 = load i32, ptr %6, align 4
  %83 = load ptr, ptr %7, align 8
  %84 = getelementptr inbounds %struct.cli_bc_type, ptr %83, i32 0, i32 2
  %85 = load i32, ptr %84, align 8
  %86 = icmp ult i32 %82, %85
  br i1 %86, label %87, label %99

87:                                               ; preds = %81
  %88 = load ptr, ptr %3, align 8
  %89 = load ptr, ptr %7, align 8
  %90 = getelementptr inbounds %struct.cli_bc_type, ptr %89, i32 0, i32 1
  %91 = load ptr, ptr %90, align 8
  %92 = getelementptr inbounds i16, ptr %91, i64 0
  %93 = load i16, ptr %92, align 2
  %94 = zext i16 %93 to i32
  call void @cli_bytetype_helper(ptr noundef %88, i32 noundef %94)
  %95 = call i32 (ptr, ...) @printf(ptr noundef @.str.422)
  br label %96

96:                                               ; preds = %87
  %97 = load i32, ptr %6, align 4
  %98 = add i32 %97, 1
  store i32 %98, ptr %6, align 4
  br label %81

99:                                               ; preds = %81
  %100 = call i32 (ptr, ...) @printf(ptr noundef @.str.425)
  br label %120

101:                                              ; preds = %31
  %102 = call i32 (ptr, ...) @printf(ptr noundef @.str.426)
  %103 = load ptr, ptr %7, align 8
  %104 = getelementptr inbounds %struct.cli_bc_type, ptr %103, i32 0, i32 2
  %105 = load i32, ptr %104, align 8
  %106 = call i32 (ptr, ...) @printf(ptr noundef @.str.427, i32 noundef %105)
  %107 = load ptr, ptr %3, align 8
  %108 = load ptr, ptr %7, align 8
  %109 = getelementptr inbounds %struct.cli_bc_type, ptr %108, i32 0, i32 1
  %110 = load ptr, ptr %109, align 8
  %111 = getelementptr inbounds i16, ptr %110, i64 0
  %112 = load i16, ptr %111, align 2
  %113 = zext i16 %112 to i32
  call void @cli_bytetype_helper(ptr noundef %107, i32 noundef %113)
  %114 = call i32 (ptr, ...) @printf(ptr noundef @.str.428)
  br label %120

115:                                              ; preds = %31
  %116 = load ptr, ptr %7, align 8
  %117 = getelementptr inbounds %struct.cli_bc_type, ptr %116, i32 0, i32 0
  %118 = load i32, ptr %117, align 8
  %119 = call i32 (ptr, ...) @printf(ptr noundef @.str.429, i32 noundef %118)
  br label %120

120:                                              ; preds = %115, %101, %99, %70, %68, %29, %18
  ret void
}