; Function Attrs: nofree nounwind uwtable
define internal fastcc void @cli_bytetype_helper(ptr noundef %0, i32 noundef %1) unnamed_addr #16 {
  %3 = and i32 %1, 32768
  %.not = icmp eq i32 %3, 0
  br i1 %.not, label %7, label %4

4:                                                ; preds = %2
  %5 = tail call i32 (ptr, ...) @printf(ptr noundef nonnull dereferenceable(1) @.str.418)
  %6 = and i32 %1, 32767
  br label %7

7:                                                ; preds = %4, %2
  %.0 = phi i32 [ %6, %4 ], [ %1, %2 ]
  %8 = icmp ult i32 %.0, 65
  br i1 %8, label %9, label %11

9:                                                ; preds = %7
  %10 = tail call i32 (ptr, ...) @printf(ptr noundef nonnull dereferenceable(1) @.str.419, i32 noundef %.0)
  br label %common.ret42

11:                                               ; preds = %7
  %12 = add i32 %.0, -65
  %13 = getelementptr inbounds i8, ptr %0, i64 56
  %14 = load i32, ptr %13, align 8
  %.not29 = icmp ult i32 %12, %14
  br i1 %.not29, label %17, label %15

15:                                               ; preds = %11
  %16 = tail call i32 (ptr, ...) @printf(ptr noundef nonnull dereferenceable(1) @.str.420)
  br label %common.ret42

17:                                               ; preds = %11
  %18 = getelementptr inbounds i8, ptr %0, i64 72
  %19 = load ptr, ptr %18, align 8
  %20 = zext i32 %12 to i64
  %21 = getelementptr inbounds %struct.cli_bc_type, ptr %19, i64 %20
  %22 = load i32, ptr %21, align 8
  switch i32 %22, label %63 [
    i32 0, label %23
    i32 1, label %38
    i32 2, label %43
    i32 3, label %43
    i32 4, label %55
  ]

23:                                               ; preds = %17
  %24 = getelementptr inbounds i8, ptr %21, i64 8
  %25 = load ptr, ptr %24, align 8
  %26 = load i16, ptr %25, align 2
  %27 = zext i16 %26 to i32
  tail call fastcc void @cli_bytetype_helper(ptr noundef nonnull %0, i32 noundef %27)
  %28 = tail call i32 (ptr, ...) @printf(ptr noundef nonnull dereferenceable(1) @.str.421)
  %29 = getelementptr inbounds i8, ptr %21, i64 16
  %30 = load i32, ptr %29, align 8
  %31 = icmp ugt i32 %30, 1
  br i1 %31, label %.lr.ph39, label %._crit_edge40

.lr.ph39:                                         ; preds = %23, %.lr.ph39
  %.02737 = phi i32 [ %35, %.lr.ph39 ], [ 1, %23 ]
  %32 = load ptr, ptr %24, align 8
  %33 = load i16, ptr %32, align 2
  %34 = zext i16 %33 to i32
  tail call fastcc void @cli_bytetype_helper(ptr noundef %0, i32 noundef %34)
  %putchar35 = tail call i32 @putchar(i32 32)
  %35 = add nuw i32 %.02737, 1
  %36 = load i32, ptr %29, align 8
  %37 = icmp ult i32 %35, %36
  br i1 %37, label %.lr.ph39, label %._crit_edge40

._crit_edge40:                                    ; preds = %.lr.ph39, %23
  %putchar34 = tail call i32 @putchar(i32 41)
  br label %common.ret42

common.ret42:                                     ; preds = %63, %._crit_edge, %._crit_edge40, %15, %9, %55, %38
  ret void

38:                                               ; preds = %17
  %39 = getelementptr inbounds i8, ptr %21, i64 8
  %40 = load ptr, ptr %39, align 8
  %41 = load i16, ptr %40, align 2
  %42 = zext i16 %41 to i32
  tail call fastcc void @cli_bytetype_helper(ptr noundef nonnull %0, i32 noundef %42)
  %putchar33 = tail call i32 @putchar(i32 42)
  br label %common.ret42

43:                                               ; preds = %17, %17
  %44 = tail call i32 (ptr, ...) @printf(ptr noundef nonnull dereferenceable(1) @.str.424)
  %45 = getelementptr inbounds i8, ptr %21, i64 16
  %46 = load i32, ptr %45, align 8
  %.not41 = icmp eq i32 %46, 0
  br i1 %.not41, label %._crit_edge, label %.lr.ph

.lr.ph:                                           ; preds = %43
  %47 = getelementptr inbounds i8, ptr %21, i64 8
  br label %48

48:                                               ; preds = %.lr.ph, %48
  %.136 = phi i32 [ 0, %.lr.ph ], [ %52, %48 ]
  %49 = load ptr, ptr %47, align 8
  %50 = load i16, ptr %49, align 2
  %51 = zext i16 %50 to i32
  tail call fastcc void @cli_bytetype_helper(ptr noundef %0, i32 noundef %51)
  %putchar32 = tail call i32 @putchar(i32 32)
  %52 = add nuw i32 %.136, 1
  %53 = load i32, ptr %45, align 8
  %54 = icmp ult i32 %52, %53
  br i1 %54, label %48, label %._crit_edge

._crit_edge:                                      ; preds = %48, %43
  %putchar31 = tail call i32 @putchar(i32 125)
  br label %common.ret42

55:                                               ; preds = %17
  %putchar = tail call i32 @putchar(i32 91)
  %56 = getelementptr inbounds i8, ptr %21, i64 16
  %57 = load i32, ptr %56, align 8
  %58 = tail call i32 (ptr, ...) @printf(ptr noundef nonnull dereferenceable(1) @.str.427, i32 noundef %57)
  %59 = getelementptr inbounds i8, ptr %21, i64 8
  %60 = load ptr, ptr %59, align 8
  %61 = load i16, ptr %60, align 2
  %62 = zext i16 %61 to i32
  tail call fastcc void @cli_bytetype_helper(ptr noundef nonnull %0, i32 noundef %62)
  %putchar30 = tail call i32 @putchar(i32 93)
  br label %common.ret42

63:                                               ; preds = %17
  %64 = tail call i32 (ptr, ...) @printf(ptr noundef nonnull dereferenceable(1) @.str.429, i32 noundef %22)
  br label %common.ret42
}